; Function Attrs: mustprogress nofree norecurse nounwind memory(argmem: readwrite, inaccessiblemem: readwrite) uwtable
define hidden void @_ZN11OopMapCacheC2Ev(ptr noundef nonnull align 8 dereferenceable(256) %0) unnamed_addr #8 align 2 {
  br label %2

2:                                                ; preds = %1, %2
  %indvars.iv = phi i64 [ 0, %1 ], [ %indvars.iv.next, %2 ]
  %3 = getelementptr inbounds [32 x ptr], ptr %0, i64 0, i64 %indvars.iv
  store volatile ptr null, ptr %3, align 8
  %indvars.iv.next = add nuw nsw i64 %indvars.iv, 1
  %exitcond.not = icmp eq i64 %indvars.iv.next, 32
  br i1 %exitcond.not, label %4, label %2, !llvm.loop !13

4:                                                ; preds = %2
  ret void
}